; Function Attrs: mustprogress nofree norecurse nosync nounwind willreturn memory(none) uwtable
define noundef nonnull ptr @l_Lean_ReducibilityStatus_toCtorIdx(i8 noundef zeroext %0) local_unnamed_addr #1 {
  switch i8 %0, label %3 [
    i8 0, label %4
    i8 1, label %2
  ]

2:                                                ; preds = %1
  br label %4

3:                                                ; preds = %1
  br label %4

4:                                                ; preds = %1, %3, %2
  %.0 = phi ptr [ inttoptr (i64 5 to ptr), %3 ], [ inttoptr (i64 3 to ptr), %2 ], [ inttoptr (i64 1 to ptr), %1 ]
  ret ptr %.0
}